; Function Attrs: mustprogress uwtable
define noundef i64 @_ZN6casadi10NlImporter9read_longEv(ptr noundef nonnull align 8 dereferenceable(672) %0) local_unnamed_addr #3 align 2 {
  %2 = alloca i64, align 8
  %3 = getelementptr inbounds i8, ptr %0, i64 9
  %4 = load i8, ptr %3, align 1
  %5 = and i8 %4, 1
  %.not = icmp eq i8 %5, 0
  %6 = getelementptr inbounds i8, ptr %0, i64 16
  br i1 %.not, label %9, label %7

7:                                                ; preds = %1
  %8 = call noundef nonnull align 8 dereferenceable(16) ptr @_ZNSi4readEPcl(ptr noundef nonnull align 8 dereferenceable(16) %6, ptr noundef nonnull %2, i64 noundef 4)
  br label %11

9:                                                ; preds = %1
  %10 = call noundef nonnull align 8 dereferenceable(16) ptr @_ZNSirsERl(ptr noundef nonnull align 8 dereferenceable(16) %6, ptr noundef nonnull align 8 dereferenceable(8) %2)
  br label %11

11:                                               ; preds = %9, %7
  %12 = load i64, ptr %2, align 8
  ret i64 %12
}